target datalayout = "e-m:e-p270:32:32-p271:32:32-p272:64:64-i64:64-i128:128-f80:128-n8:16:32:64-S128"
target triple = "x86_64-pc-linux-gnu"

%"class.rocksdb::Customizable" = type { %"class.rocksdb::Configurable" }
%"class.rocksdb::Configurable" = type { ptr, %"class.std::vector.178" }
%"class.std::vector.178" = type { %"struct.std::_Vector_base.179" }
%"struct.std::_Vector_base.179" = type { %"struct.std::_Vector_base<rocksdb::Configurable::RegisteredOptions, std::allocator<rocksdb::Configurable::RegisteredOptions>>::_Vector_impl" }
%"struct.std::_Vector_base<rocksdb::Configurable::RegisteredOptions, std::allocator<rocksdb::Configurable::RegisteredOptions>>::_Vector_impl" = type { %"struct.std::_Vector_base<rocksdb::Configurable::RegisteredOptions, std::allocator<rocksdb::Configurable::RegisteredOptions>>::_Vector_impl_data" }
%"struct.std::_Vector_base<rocksdb::Configurable::RegisteredOptions, std::allocator<rocksdb::Configurable::RegisteredOptions>>::_Vector_impl_data" = type { ptr, ptr, ptr }
%struct.rocksdb_filterpolicy_t = type { %"class.rocksdb::FilterPolicy", ptr, ptr, ptr }
%"class.rocksdb::FilterPolicy" = type { %"class.rocksdb::Customizable" }
%struct.Wrapper.250 = type { %struct.rocksdb_filterpolicy_t, ptr }

; Function Attrs: mustprogress uwtable
define internal noundef ptr @_ZZ41rocksdb_filterpolicy_create_ribbon_formatENK7Wrapper19GetFilterBitsReaderERKN7rocksdb5SliceE(ptr noundef nonnull align 8 dereferenceable(64) %0, ptr noundef nonnull align 8 dereferenceable(16) %1) unnamed_addr #0 align 2 {
  %3 = alloca ptr, align 8
  %4 = alloca ptr, align 8
  store ptr %0, ptr %3, align 8, !tbaa !979
  store ptr %1, ptr %4, align 8, !tbaa !256
  %5 = load ptr, ptr %3, align 8
  %6 = getelementptr inbounds nuw %struct.Wrapper.250, ptr %5, i32 0, i32 1
  %7 = load ptr, ptr %6, align 8, !tbaa !981
  %8 = load ptr, ptr %4, align 8, !tbaa !256
  %9 = load ptr, ptr %7, align 8, !tbaa !129
  %10 = getelementptr inbounds ptr, ptr %9, i64 21
  %11 = load ptr, ptr %10, align 8
  %12 = call noundef ptr %11(ptr noundef nonnull align 8 dereferenceable(32) %7, ptr noundef nonnull align 8 dereferenceable(16) %8)
  ret ptr %12
}